; ModuleID = '20/1181.c'
source_filename = "20/1181.c"
target datalayout = "e-m:e-p270:32:32-p271:32:32-p272:64:64-i64:64-f80:128-n8:16:32:64-S128"
target triple = "x86_64-pc-linux-gnu"

@.str = private unnamed_addr constant [6 x i8] c"%s %s\00", align 1
@.str.1 = private unnamed_addr constant [4 x i8] c"%s\0A\00", align 1

; Function Attrs: noinline nounwind uwtable
define dso_local i32 @main() #0 {
  %1 = alloca i32, align 4
  %2 = alloca [11 x i8], align 1
  %3 = alloca [4 x i8], align 1
  %4 = alloca [15 x i8], align 1
  %5 = alloca [10 x i8], align 1
  %6 = alloca i32, align 4
  %7 = alloca i32, align 4
  %8 = alloca i32, align 4
  %9 = alloca i32, align 4
  %10 = alloca i8, align 1
  store i32 0, i32* %1, align 4
  %11 = bitcast [11 x i8]* %2 to i8*
  call void @llvm.memset.p0i8.i64(i8* align 1 %11, i8 0, i64 11, i1 false)
  br label %12

12:                                               ; preds = %90, %0
  %13 = getelementptr inbounds [11 x i8], [11 x i8]* %2, i64 0, i64 0
  %14 = getelementptr inbounds [4 x i8], [4 x i8]* %3, i64 0, i64 0
  %15 = call i32 (i8*, ...) @__isoc99_scanf(i8* getelementptr inbounds ([6 x i8], [6 x i8]* @.str, i64 0, i64 0), i8* %13, i8* %14)
  %16 = icmp ne i32 %15, -1
  br i1 %16, label %17, label %99

17:                                               ; preds = %12
  %18 = bitcast [15 x i8]* %4 to i8*
  call void @llvm.memset.p0i8.i64(i8* align 1 %18, i8 0, i64 15, i1 false)
  %19 = bitcast [10 x i8]* %5 to i8*
  call void @llvm.memset.p0i8.i64(i8* align 1 %19, i8 0, i64 10, i1 false)
  %20 = getelementptr inbounds [11 x i8], [11 x i8]* %2, i64 0, i64 0
  %21 = call i64 @strlen(i8* %20) #5
  %22 = trunc i64 %21 to i32
  store i32 %22, i32* %9, align 4
  %23 = getelementptr inbounds [11 x i8], [11 x i8]* %2, i64 0, i64 0
  %24 = load i8, i8* %23, align 1
  store i8 %24, i8* %10, align 1
  store i32 1, i32* %6, align 4
  br label %25

25:                                               ; preds = %44, %17
  %26 = load i32, i32* %6, align 4
  %27 = load i32, i32* %9, align 4
  %28 = icmp slt i32 %26, %27
  br i1 %28, label %29, label %47

29:                                               ; preds = %25
  %30 = load i32, i32* %6, align 4
  %31 = sext i32 %30 to i64
  %32 = getelementptr inbounds [11 x i8], [11 x i8]* %2, i64 0, i64 %31
  %33 = load i8, i8* %32, align 1
  %34 = sext i8 %33 to i32
  %35 = load i8, i8* %10, align 1
  %36 = sext i8 %35 to i32
  %37 = icmp sgt i32 %34, %36
  br i1 %37, label %38, label %43

38:                                               ; preds = %29
  %39 = load i32, i32* %6, align 4
  %40 = sext i32 %39 to i64
  %41 = getelementptr inbounds [11 x i8], [11 x i8]* %2, i64 0, i64 %40
  %42 = load i8, i8* %41, align 1
  store i8 %42, i8* %10, align 1
  br label %43

43:                                               ; preds = %38, %29
  br label %44

44:                                               ; preds = %43
  %45 = load i32, i32* %6, align 4
  %46 = add nsw i32 %45, 1
  store i32 %46, i32* %6, align 4
  br label %25

47:                                               ; preds = %25
  store i32 0, i32* %7, align 4
  br label %48

48:                                               ; preds = %66, %47
  %49 = load i32, i32* %7, align 4
  %50 = sext i32 %49 to i64
  %51 = getelementptr inbounds [11 x i8], [11 x i8]* %2, i64 0, i64 %50
  %52 = load i8, i8* %51, align 1
  %53 = load i32, i32* %7, align 4
  %54 = sext i32 %53 to i64
  %55 = getelementptr inbounds [15 x i8], [15 x i8]* %4, i64 0, i64 %54
  store i8 %52, i8* %55, align 1
  %56 = load i32, i32* %7, align 4
  %57 = sext i32 %56 to i64
  %58 = getelementptr inbounds [11 x i8], [11 x i8]* %2, i64 0, i64 %57
  %59 = load i8, i8* %58, align 1
  %60 = sext i8 %59 to i32
  %61 = load i8, i8* %10, align 1
  %62 = sext i8 %61 to i32
  %63 = icmp eq i32 %60, %62
  br i1 %63, label %64, label %65

64:                                               ; preds = %48
  br label %69

65:                                               ; preds = %48
  br label %66

66:                                               ; preds = %65
  %67 = load i32, i32* %7, align 4
  %68 = add nsw i32 %67, 1
  store i32 %68, i32* %7, align 4
  br label %48

69:                                               ; preds = %64
  %70 = load i32, i32* %7, align 4
  %71 = add nsw i32 %70, 1
  store i32 %71, i32* %8, align 4
  br label %72

72:                                               ; preds = %87, %69
  %73 = load i32, i32* %8, align 4
  %74 = load i32, i32* %9, align 4
  %75 = icmp slt i32 %73, %74
  br i1 %75, label %76, label %90

76:                                               ; preds = %72
  %77 = load i32, i32* %8, align 4
  %78 = sext i32 %77 to i64
  %79 = getelementptr inbounds [11 x i8], [11 x i8]* %2, i64 0, i64 %78
  %80 = load i8, i8* %79, align 1
  %81 = load i32, i32* %8, align 4
  %82 = load i32, i32* %7, align 4
  %83 = sub nsw i32 %81, %82
  %84 = sub nsw i32 %83, 1
  %85 = sext i32 %84 to i64
  %86 = getelementptr inbounds [10 x i8], [10 x i8]* %5, i64 0, i64 %85
  store i8 %80, i8* %86, align 1
  br label %87

87:                                               ; preds = %76
  %88 = load i32, i32* %8, align 4
  %89 = add nsw i32 %88, 1
  store i32 %89, i32* %8, align 4
  br label %72

90:                                               ; preds = %72
  %91 = getelementptr inbounds [15 x i8], [15 x i8]* %4, i64 0, i64 0
  %92 = getelementptr inbounds [4 x i8], [4 x i8]* %3, i64 0, i64 0
  %93 = call i8* @strcat(i8* %91, i8* %92) #6
  %94 = getelementptr inbounds [15 x i8], [15 x i8]* %4, i64 0, i64 0
  %95 = getelementptr inbounds [10 x i8], [10 x i8]* %5, i64 0, i64 0
  %96 = call i8* @strcat(i8* %94, i8* %95) #6
  %97 = getelementptr inbounds [15 x i8], [15 x i8]* %4, i64 0, i64 0
  %98 = call i32 (i8*, ...) @printf(i8* getelementptr inbounds ([4 x i8], [4 x i8]* @.str.1, i64 0, i64 0), i8* %97)
  br label %12

99:                                               ; preds = %12
  ret i32 0
}

; Function Attrs: argmemonly nounwind willreturn
declare void @llvm.memset.p0i8.i64(i8* nocapture writeonly, i8, i64, i1 immarg) #1

declare dso_local i32 @__isoc99_scanf(i8*, ...) #2

; Function Attrs: nounwind readonly
declare dso_local i64 @strlen(i8*) #3

; Function Attrs: nounwind
declare dso_local i8* @strcat(i8*, i8*) #4

declare dso_local i32 @printf(i8*, ...) #2


!llvm.module.flags = !{!0}
!llvm.ident = !{!1}

!0 = !{i32 1, !"wchar_size", i32 4}
!1 = !{!"clang version 10.0.0-4ubuntu1 "}
